; ModuleID = '20/921.c'
source_filename = "20/921.c"
target datalayout = "e-m:e-p270:32:32-p271:32:32-p272:64:64-i64:64-f80:128-n8:16:32:64-S128"
target triple = "x86_64-pc-linux-gnu"

@.str = private unnamed_addr constant [5 x i8] c"%s%s\00", align 1
@.str.1 = private unnamed_addr constant [4 x i8] c"%s\0A\00", align 1

; Function Attrs: noinline nounwind uwtable
define dso_local i32 @posi(i8* %0) #0 {
  %2 = alloca i8*, align 8
  %3 = alloca i32, align 4
  %4 = alloca i32, align 4
  store i8* %0, i8** %2, align 8
  store i32 0, i32* %4, align 4
  store i32 1, i32* %3, align 4
  br label %5

5:                                                ; preds = %28, %1
  %6 = load i32, i32* %3, align 4
  %7 = sext i32 %6 to i64
  %8 = load i8*, i8** %2, align 8
  %9 = call i64 @strlen(i8* %8) #3
  %10 = icmp ult i64 %7, %9
  br i1 %10, label %11, label %31

11:                                               ; preds = %5
  %12 = load i8*, i8** %2, align 8
  %13 = load i32, i32* %3, align 4
  %14 = sext i32 %13 to i64
  %15 = getelementptr inbounds i8, i8* %12, i64 %14
  %16 = load i8, i8* %15, align 1
  %17 = sext i8 %16 to i32
  %18 = load i8*, i8** %2, align 8
  %19 = load i32, i32* %4, align 4
  %20 = sext i32 %19 to i64
  %21 = getelementptr inbounds i8, i8* %18, i64 %20
  %22 = load i8, i8* %21, align 1
  %23 = sext i8 %22 to i32
  %24 = icmp sgt i32 %17, %23
  br i1 %24, label %25, label %27

25:                                               ; preds = %11
  %26 = load i32, i32* %3, align 4
  store i32 %26, i32* %4, align 4
  br label %27

27:                                               ; preds = %25, %11
  br label %28

28:                                               ; preds = %27
  %29 = load i32, i32* %3, align 4
  %30 = add nsw i32 %29, 1
  store i32 %30, i32* %3, align 4
  br label %5

31:                                               ; preds = %5
  %32 = load i32, i32* %4, align 4
  %33 = add nsw i32 %32, 1
  ret i32 %33
}

; Function Attrs: nounwind readonly
declare dso_local i64 @strlen(i8*) #1

; Function Attrs: noinline nounwind uwtable
define dso_local i32 @main() #0 {
  %1 = alloca i32, align 4
  %2 = alloca [20 x i8], align 16
  %3 = alloca [4 x i8], align 1
  %4 = alloca i32, align 4
  %5 = alloca i32, align 4
  %6 = alloca i32, align 4
  %7 = alloca i32, align 4
  store i32 0, i32* %1, align 4
  br label %8

8:                                                ; preds = %53, %0
  %9 = getelementptr inbounds [20 x i8], [20 x i8]* %2, i64 0, i64 0
  %10 = getelementptr inbounds [4 x i8], [4 x i8]* %3, i64 0, i64 0
  %11 = call i32 (i8*, ...) @__isoc99_scanf(i8* getelementptr inbounds ([5 x i8], [5 x i8]* @.str, i64 0, i64 0), i8* %9, i8* %10)
  %12 = icmp ne i32 %11, -1
  br i1 %12, label %13, label %56

13:                                               ; preds = %8
  %14 = getelementptr inbounds [20 x i8], [20 x i8]* %2, i64 0, i64 0
  %15 = call i64 @strlen(i8* %14) #3
  %16 = trunc i64 %15 to i32
  store i32 %16, i32* %7, align 4
  %17 = getelementptr inbounds [20 x i8], [20 x i8]* %2, i64 0, i64 0
  %18 = call i32 @posi(i8* %17)
  store i32 %18, i32* %4, align 4
  %19 = load i32, i32* %7, align 4
  store i32 %19, i32* %5, align 4
  br label %20

20:                                               ; preds = %33, %13
  %21 = load i32, i32* %5, align 4
  %22 = load i32, i32* %4, align 4
  %23 = icmp sge i32 %21, %22
  br i1 %23, label %24, label %36

24:                                               ; preds = %20
  %25 = load i32, i32* %5, align 4
  %26 = sext i32 %25 to i64
  %27 = getelementptr inbounds [20 x i8], [20 x i8]* %2, i64 0, i64 %26
  %28 = load i8, i8* %27, align 1
  %29 = load i32, i32* %5, align 4
  %30 = add nsw i32 %29, 3
  %31 = sext i32 %30 to i64
  %32 = getelementptr inbounds [20 x i8], [20 x i8]* %2, i64 0, i64 %31
  store i8 %28, i8* %32, align 1
  br label %33

33:                                               ; preds = %24
  %34 = load i32, i32* %5, align 4
  %35 = add nsw i32 %34, -1
  store i32 %35, i32* %5, align 4
  br label %20

36:                                               ; preds = %20
  store i32 0, i32* %5, align 4
  br label %37

37:                                               ; preds = %50, %36
  %38 = load i32, i32* %5, align 4
  %39 = icmp slt i32 %38, 3
  br i1 %39, label %40, label %53

40:                                               ; preds = %37
  %41 = load i32, i32* %5, align 4
  %42 = sext i32 %41 to i64
  %43 = getelementptr inbounds [4 x i8], [4 x i8]* %3, i64 0, i64 %42
  %44 = load i8, i8* %43, align 1
  %45 = load i32, i32* %4, align 4
  %46 = load i32, i32* %5, align 4
  %47 = add nsw i32 %45, %46
  %48 = sext i32 %47 to i64
  %49 = getelementptr inbounds [20 x i8], [20 x i8]* %2, i64 0, i64 %48
  store i8 %44, i8* %49, align 1
  br label %50

50:                                               ; preds = %40
  %51 = load i32, i32* %5, align 4
  %52 = add nsw i32 %51, 1
  store i32 %52, i32* %5, align 4
  br label %37

53:                                               ; preds = %37
  %54 = getelementptr inbounds [20 x i8], [20 x i8]* %2, i64 0, i64 0
  %55 = call i32 (i8*, ...) @printf(i8* getelementptr inbounds ([4 x i8], [4 x i8]* @.str.1, i64 0, i64 0), i8* %54)
  br label %8

56:                                               ; preds = %8
  %57 = load i32, i32* %1, align 4
  ret i32 %57
}

declare dso_local i32 @__isoc99_scanf(i8*, ...) #2

declare dso_local i32 @printf(i8*, ...) #2


!llvm.module.flags = !{!0}
!llvm.ident = !{!1}

!0 = !{i32 1, !"wchar_size", i32 4}
!1 = !{!"clang version 10.0.0-4ubuntu1 "}
